target datalayout = "e-m:e-p270:32:32-p271:32:32-p272:64:64-i64:64-i128:128-f80:128-n8:16:32:64-S128"
target triple = "x86_64-pc-linux-gnu"

%struct.pmix_mca_base_component_2_1_0_t = type { i32, i32, i32, [16 x i8], i32, i32, i32, [32 x i8], i32, i32, i32, [64 x i8], i32, i32, i32, ptr, ptr, ptr, ptr, [32 x i8] }

; Function Attrs: nounwind uwtable
define i32 @pmix_mca_base_component_compare(ptr noundef %0, ptr noundef %1) #0 {
  %3 = alloca i32, align 4
  %4 = alloca ptr, align 8
  %5 = alloca ptr, align 8
  %6 = alloca i32, align 4
  %7 = alloca i32, align 4
  store ptr %0, ptr %4, align 8, !tbaa !19
  store ptr %1, ptr %5, align 8, !tbaa !19
  call void @llvm.lifetime.start.p0(i64 4, ptr %6) #4
  %8 = load ptr, ptr %4, align 8, !tbaa !19
  %9 = getelementptr inbounds nuw %struct.pmix_mca_base_component_2_1_0_t, ptr %8, i32 0, i32 7
  %10 = getelementptr inbounds [32 x i8], ptr %9, i64 0, i64 0
  %11 = load ptr, ptr %5, align 8, !tbaa !19
  %12 = getelementptr inbounds nuw %struct.pmix_mca_base_component_2_1_0_t, ptr %11, i32 0, i32 7
  %13 = getelementptr inbounds [32 x i8], ptr %12, i64 0, i64 0
  %14 = call i32 @strncmp(ptr noundef %10, ptr noundef %13, i64 noundef 31) #5
  store i32 %14, ptr %6, align 4, !tbaa !20
  %15 = load i32, ptr %6, align 4, !tbaa !20
  %16 = icmp ne i32 %15, 0
  br i1 %16, label %17, label %20

17:                                               ; preds = %2
  %18 = load i32, ptr %6, align 4, !tbaa !20
  %19 = sub nsw i32 0, %18
  store i32 %19, ptr %3, align 4
  store i32 1, ptr %7, align 4
  br label %93

20:                                               ; preds = %2
  %21 = load ptr, ptr %4, align 8, !tbaa !19
  %22 = getelementptr inbounds nuw %struct.pmix_mca_base_component_2_1_0_t, ptr %21, i32 0, i32 11
  %23 = getelementptr inbounds [64 x i8], ptr %22, i64 0, i64 0
  %24 = load ptr, ptr %5, align 8, !tbaa !19
  %25 = getelementptr inbounds nuw %struct.pmix_mca_base_component_2_1_0_t, ptr %24, i32 0, i32 11
  %26 = getelementptr inbounds [64 x i8], ptr %25, i64 0, i64 0
  %27 = call i32 @strncmp(ptr noundef %23, ptr noundef %26, i64 noundef 63) #5
  store i32 %27, ptr %6, align 4, !tbaa !20
  %28 = load i32, ptr %6, align 4, !tbaa !20
  %29 = icmp ne i32 %28, 0
  br i1 %29, label %30, label %33

30:                                               ; preds = %20
  %31 = load i32, ptr %6, align 4, !tbaa !20
  %32 = sub nsw i32 0, %31
  store i32 %32, ptr %3, align 4
  store i32 1, ptr %7, align 4
  br label %93

33:                                               ; preds = %20
  %34 = load ptr, ptr %4, align 8, !tbaa !19
  %35 = getelementptr inbounds nuw %struct.pmix_mca_base_component_2_1_0_t, ptr %34, i32 0, i32 12
  %36 = load i32, ptr %35, align 4, !tbaa !21
  %37 = load ptr, ptr %5, align 8, !tbaa !19
  %38 = getelementptr inbounds nuw %struct.pmix_mca_base_component_2_1_0_t, ptr %37, i32 0, i32 12
  %39 = load i32, ptr %38, align 4, !tbaa !21
  %40 = icmp sgt i32 %36, %39
  br i1 %40, label %41, label %42

41:                                               ; preds = %33
  store i32 -1, ptr %3, align 4
  store i32 1, ptr %7, align 4
  br label %93

42:                                               ; preds = %33
  %43 = load ptr, ptr %4, align 8, !tbaa !19
  %44 = getelementptr inbounds nuw %struct.pmix_mca_base_component_2_1_0_t, ptr %43, i32 0, i32 12
  %45 = load i32, ptr %44, align 4, !tbaa !21
  %46 = load ptr, ptr %5, align 8, !tbaa !19
  %47 = getelementptr inbounds nuw %struct.pmix_mca_base_component_2_1_0_t, ptr %46, i32 0, i32 12
  %48 = load i32, ptr %47, align 4, !tbaa !21
  %49 = icmp slt i32 %45, %48
  br i1 %49, label %50, label %51

50:                                               ; preds = %42
  store i32 1, ptr %3, align 4
  store i32 1, ptr %7, align 4
  br label %93

51:                                               ; preds = %42
  %52 = load ptr, ptr %4, align 8, !tbaa !19
  %53 = getelementptr inbounds nuw %struct.pmix_mca_base_component_2_1_0_t, ptr %52, i32 0, i32 13
  %54 = load i32, ptr %53, align 8, !tbaa !23
  %55 = load ptr, ptr %5, align 8, !tbaa !19
  %56 = getelementptr inbounds nuw %struct.pmix_mca_base_component_2_1_0_t, ptr %55, i32 0, i32 13
  %57 = load i32, ptr %56, align 8, !tbaa !23
  %58 = icmp sgt i32 %54, %57
  br i1 %58, label %59, label %60

59:                                               ; preds = %51
  store i32 -1, ptr %3, align 4
  store i32 1, ptr %7, align 4
  br label %93

60:                                               ; preds = %51
  %61 = load ptr, ptr %4, align 8, !tbaa !19
  %62 = getelementptr inbounds nuw %struct.pmix_mca_base_component_2_1_0_t, ptr %61, i32 0, i32 13
  %63 = load i32, ptr %62, align 8, !tbaa !23
  %64 = load ptr, ptr %5, align 8, !tbaa !19
  %65 = getelementptr inbounds nuw %struct.pmix_mca_base_component_2_1_0_t, ptr %64, i32 0, i32 13
  %66 = load i32, ptr %65, align 8, !tbaa !23
  %67 = icmp slt i32 %63, %66
  br i1 %67, label %68, label %69

68:                                               ; preds = %60
  store i32 1, ptr %3, align 4
  store i32 1, ptr %7, align 4
  br label %93

69:                                               ; preds = %60
  %70 = load ptr, ptr %4, align 8, !tbaa !19
  %71 = getelementptr inbounds nuw %struct.pmix_mca_base_component_2_1_0_t, ptr %70, i32 0, i32 14
  %72 = load i32, ptr %71, align 4, !tbaa !24
  %73 = load ptr, ptr %5, align 8, !tbaa !19
  %74 = getelementptr inbounds nuw %struct.pmix_mca_base_component_2_1_0_t, ptr %73, i32 0, i32 14
  %75 = load i32, ptr %74, align 4, !tbaa !24
  %76 = icmp sgt i32 %72, %75
  br i1 %76, label %77, label %78

77:                                               ; preds = %69
  store i32 -1, ptr %3, align 4
  store i32 1, ptr %7, align 4
  br label %93

78:                                               ; preds = %69
  %79 = load ptr, ptr %4, align 8, !tbaa !19
  %80 = getelementptr inbounds nuw %struct.pmix_mca_base_component_2_1_0_t, ptr %79, i32 0, i32 14
  %81 = load i32, ptr %80, align 4, !tbaa !24
  %82 = load ptr, ptr %5, align 8, !tbaa !19
  %83 = getelementptr inbounds nuw %struct.pmix_mca_base_component_2_1_0_t, ptr %82, i32 0, i32 14
  %84 = load i32, ptr %83, align 4, !tbaa !24
  %85 = icmp slt i32 %81, %84
  br i1 %85, label %86, label %87

86:                                               ; preds = %78
  store i32 1, ptr %3, align 4
  store i32 1, ptr %7, align 4
  br label %93

87:                                               ; preds = %78
  br label %88

88:                                               ; preds = %87
  br label %89

89:                                               ; preds = %88
  br label %90

90:                                               ; preds = %89
  br label %91

91:                                               ; preds = %90
  br label %92

92:                                               ; preds = %91
  store i32 0, ptr %3, align 4
  store i32 1, ptr %7, align 4
  br label %93

93:                                               ; preds = %92, %86, %77, %68, %59, %50, %41, %30, %17
  call void @llvm.lifetime.end.p0(i64 4, ptr %6) #4
  %94 = load i32, ptr %3, align 4
  ret i32 %94
}